; ModuleID = '28/46.c'
source_filename = "28/46.c"
target datalayout = "e-m:e-p270:32:32-p271:32:32-p272:64:64-i64:64-f80:128-n8:16:32:64-S128"
target triple = "x86_64-pc-linux-gnu"

@.str = private unnamed_addr constant [3 x i8] c"%d\00", align 1
@.str.1 = private unnamed_addr constant [4 x i8] c",%d\00", align 1

; Function Attrs: noinline nounwind uwtable
define dso_local void @main() #0 {
  %1 = alloca i32, align 4
  %2 = alloca [300 x i32], align 16
  %3 = alloca i32, align 4
  %4 = alloca i32, align 4
  %5 = alloca i8, align 1
  store i32 0, i32* %1, align 4
  store i32 0, i32* %3, align 4
  store i32 1, i32* %4, align 4
  br label %6

6:                                                ; preds = %13, %0
  %7 = load i32, i32* %4, align 4
  %8 = icmp slt i32 %7, 300
  br i1 %8, label %9, label %16

9:                                                ; preds = %6
  %10 = load i32, i32* %4, align 4
  %11 = sext i32 %10 to i64
  %12 = getelementptr inbounds [300 x i32], [300 x i32]* %2, i64 0, i64 %11
  store i32 0, i32* %12, align 4
  br label %13

13:                                               ; preds = %9
  %14 = load i32, i32* %4, align 4
  %15 = add nsw i32 %14, 1
  store i32 %15, i32* %4, align 4
  br label %6

16:                                               ; preds = %6
  br label %17

17:                                               ; preds = %43, %16
  %18 = call i32 @getchar()
  %19 = trunc i32 %18 to i8
  store i8 %19, i8* %5, align 1
  %20 = sext i8 %19 to i32
  %21 = icmp ne i32 %20, 10
  br i1 %21, label %22, label %44

22:                                               ; preds = %17
  %23 = load i8, i8* %5, align 1
  %24 = sext i8 %23 to i32
  %25 = icmp ne i32 %24, 32
  br i1 %25, label %26, label %38

26:                                               ; preds = %22
  %27 = load i32, i32* %1, align 4
  %28 = icmp eq i32 %27, 0
  br i1 %28, label %29, label %32

29:                                               ; preds = %26
  %30 = load i32, i32* %3, align 4
  %31 = add nsw i32 %30, 1
  store i32 %31, i32* %3, align 4
  br label %32

32:                                               ; preds = %29, %26
  store i32 1, i32* %1, align 4
  %33 = load i32, i32* %3, align 4
  %34 = sext i32 %33 to i64
  %35 = getelementptr inbounds [300 x i32], [300 x i32]* %2, i64 0, i64 %34
  %36 = load i32, i32* %35, align 4
  %37 = add nsw i32 %36, 1
  store i32 %37, i32* %35, align 4
  br label %38

38:                                               ; preds = %32, %22
  %39 = load i8, i8* %5, align 1
  %40 = sext i8 %39 to i32
  %41 = icmp eq i32 %40, 32
  br i1 %41, label %42, label %43

42:                                               ; preds = %38
  store i32 0, i32* %1, align 4
  br label %43

43:                                               ; preds = %42, %38
  br label %17

44:                                               ; preds = %17
  %45 = getelementptr inbounds [300 x i32], [300 x i32]* %2, i64 0, i64 1
  %46 = load i32, i32* %45, align 4
  %47 = call i32 (i8*, ...) @printf(i8* getelementptr inbounds ([3 x i8], [3 x i8]* @.str, i64 0, i64 0), i32 %46)
  %48 = load i32, i32* %3, align 4
  %49 = icmp sgt i32 %48, 1
  br i1 %49, label %50, label %65

50:                                               ; preds = %44
  store i32 2, i32* %4, align 4
  br label %51

51:                                               ; preds = %61, %50
  %52 = load i32, i32* %4, align 4
  %53 = load i32, i32* %3, align 4
  %54 = icmp sle i32 %52, %53
  br i1 %54, label %55, label %64

55:                                               ; preds = %51
  %56 = load i32, i32* %4, align 4
  %57 = sext i32 %56 to i64
  %58 = getelementptr inbounds [300 x i32], [300 x i32]* %2, i64 0, i64 %57
  %59 = load i32, i32* %58, align 4
  %60 = call i32 (i8*, ...) @printf(i8* getelementptr inbounds ([4 x i8], [4 x i8]* @.str.1, i64 0, i64 0), i32 %59)
  br label %61

61:                                               ; preds = %55
  %62 = load i32, i32* %4, align 4
  %63 = add nsw i32 %62, 1
  store i32 %63, i32* %4, align 4
  br label %51

64:                                               ; preds = %51
  br label %65

65:                                               ; preds = %64, %44
  ret void
}

declare dso_local i32 @getchar() #1

declare dso_local i32 @printf(i8*, ...) #1


!llvm.module.flags = !{!0}
!llvm.ident = !{!1}

!0 = !{i32 1, !"wchar_size", i32 4}
!1 = !{!"clang version 10.0.0-4ubuntu1 "}
